target datalayout = "e-m:e-p270:32:32-p271:32:32-p272:64:64-i64:64-i128:128-f80:128-n8:16:32:64-S128"
target triple = "x86_64-unknown-linux-gnu"

%struct.VMStateDescription = type { ptr, i8, i8, i32, i32, i32, ptr, ptr, ptr, ptr, ptr, ptr, ptr, ptr }
%struct.SSIPeripheralClass = type { %struct.DeviceClass, ptr, ptr, ptr, i32, ptr }
%struct.DeviceClass = type { %struct.ObjectClass, [1 x i64], ptr, ptr, ptr, i8, i8, ptr, ptr, ptr, ptr, ptr }
%struct.ObjectClass = type { ptr, ptr, [4 x ptr], [4 x ptr], ptr, ptr }
%struct.M25P80Class = type { %struct.SSIPeripheralClass, ptr }

@.str = private unnamed_addr constant [15 x i8] c"m25p80-generic\00", align 1
@.str.1 = private unnamed_addr constant [15 x i8] c"ssi-peripheral\00", align 1
@vmstate_m25p80 = internal constant %struct.VMStateDescription { ptr @.str.105, i8 0, i8 0, i32 0, i32 0, i32 0, ptr @m25p80_pre_load, ptr null, ptr @m25p80_pre_save, ptr null, ptr null, ptr null, ptr @.compoundliteral, ptr @.compoundliteral.215 }, align 8
@.str.136 = private unnamed_addr constant [7 x i8] c"device\00", align 1
@.str.137 = private unnamed_addr constant [101 x i8] c"/home/dtcxzyw/WorkSpace/Projects/compilers/llvm-opt-benchmark/bench/qemu/qemu/include/hw/qdev-core.h\00", align 1
@__func__.DEVICE_CLASS = private unnamed_addr constant [13 x i8] c"DEVICE_CLASS\00", align 1
@.str.138 = private unnamed_addr constant [99 x i8] c"/home/dtcxzyw/WorkSpace/Projects/compilers/llvm-opt-benchmark/bench/qemu/qemu/include/hw/ssi/ssi.h\00", align 1
@__func__.SSI_PERIPHERAL_CLASS = private unnamed_addr constant [21 x i8] c"SSI_PERIPHERAL_CLASS\00", align 1
@.str.139 = private unnamed_addr constant [26 x i8] c"../qemu/hw/block/m25p80.c\00", align 1
@__func__.M25P80_CLASS = private unnamed_addr constant [13 x i8] c"M25P80_CLASS\00", align 1

; Function Attrs: nounwind sspstrong uwtable
define internal ptr @M25P80_CLASS(ptr noundef %klass) #0 {
entry:
  %klass.addr = alloca ptr, align 8
  store ptr %klass, ptr %klass.addr, align 8
  %0 = load ptr, ptr %klass.addr, align 8
  %call = call ptr @object_class_dynamic_cast_assert(ptr noundef %0, ptr noundef @.str, ptr noundef @.str.139, i32 noundef 516, ptr noundef @__func__.M25P80_CLASS)
  ret ptr %call
}

; Function Attrs: nounwind sspstrong uwtable
define internal ptr @SSI_PERIPHERAL_CLASS(ptr noundef %klass) #0 {
entry:
  %klass.addr = alloca ptr, align 8
  store ptr %klass, ptr %klass.addr, align 8
  %0 = load ptr, ptr %klass.addr, align 8
  %call = call ptr @object_class_dynamic_cast_assert(ptr noundef %0, ptr noundef @.str.1, ptr noundef @.str.138, i32 noundef 23, ptr noundef @__func__.SSI_PERIPHERAL_CLASS)
  ret ptr %call
}

; Function Attrs: nounwind sspstrong uwtable
define internal ptr @DEVICE_CLASS(ptr noundef %klass) #0 {
entry:
  %klass.addr = alloca ptr, align 8
  store ptr %klass, ptr %klass.addr, align 8
  %0 = load ptr, ptr %klass.addr, align 8
  %call = call ptr @object_class_dynamic_cast_assert(ptr noundef %0, ptr noundef @.str.136, ptr noundef @.str.137, i32 noundef 77, ptr noundef @__func__.DEVICE_CLASS)
  ret ptr %call
}

; Function Attrs: nounwind sspstrong uwtable
define internal void @m25p80_class_init(ptr noundef %klass, ptr noundef %data) #0 {
entry:
  %klass.addr = alloca ptr, align 8
  %data.addr = alloca ptr, align 8
  %dc = alloca ptr, align 8
  %k = alloca ptr, align 8
  %mc = alloca ptr, align 8
  store ptr %klass, ptr %klass.addr, align 8
  store ptr %data, ptr %data.addr, align 8
  %0 = load ptr, ptr %klass.addr, align 8
  %call = call ptr @DEVICE_CLASS(ptr noundef %0)
  store ptr %call, ptr %dc, align 8
  %1 = load ptr, ptr %klass.addr, align 8
  %call1 = call ptr @SSI_PERIPHERAL_CLASS(ptr noundef %1)
  store ptr %call1, ptr %k, align 8
  %2 = load ptr, ptr %klass.addr, align 8
  %call2 = call ptr @M25P80_CLASS(ptr noundef %2)
  store ptr %call2, ptr %mc, align 8
  %3 = load ptr, ptr %k, align 8
  %realize = getelementptr inbounds %struct.SSIPeripheralClass, ptr %3, i32 0, i32 1
  store ptr @m25p80_realize, ptr %realize, align 8
  %4 = load ptr, ptr %k, align 8
  %transfer = getelementptr inbounds %struct.SSIPeripheralClass, ptr %4, i32 0, i32 2
  store ptr @m25p80_transfer8, ptr %transfer, align 8
  %5 = load ptr, ptr %k, align 8
  %set_cs = getelementptr inbounds %struct.SSIPeripheralClass, ptr %5, i32 0, i32 3
  store ptr @m25p80_cs, ptr %set_cs, align 8
  %6 = load ptr, ptr %k, align 8
  %cs_polarity = getelementptr inbounds %struct.SSIPeripheralClass, ptr %6, i32 0, i32 4
  store i32 1, ptr %cs_polarity, align 8
  %7 = load ptr, ptr %dc, align 8
  %vmsd = getelementptr inbounds %struct.DeviceClass, ptr %7, i32 0, i32 10
  store ptr @vmstate_m25p80, ptr %vmsd, align 8
  %8 = load ptr, ptr %dc, align 8
  call void @device_class_set_props(ptr noundef %8, ptr noundef @m25p80_properties)
  %9 = load ptr, ptr %dc, align 8
  %reset = getelementptr inbounds %struct.DeviceClass, ptr %9, i32 0, i32 7
  store ptr @m25p80_reset, ptr %reset, align 8
  %10 = load ptr, ptr %data.addr, align 8
  %11 = load ptr, ptr %mc, align 8
  %pi = getelementptr inbounds %struct.M25P80Class, ptr %11, i32 0, i32 1
  store ptr %10, ptr %pi, align 8
  ret void
}