; Function Attrs: nounwind sspstrong uwtable
define internal void @m25p80_class_init(ptr noundef %klass, ptr noundef %data) #0 {
entry:
  %call.i = tail call ptr @object_class_dynamic_cast_assert(ptr noundef %klass, ptr noundef nonnull @.str.136, ptr noundef nonnull @.str.137, i32 noundef 77, ptr noundef nonnull @__func__.DEVICE_CLASS) #13
  %call.i8 = tail call ptr @object_class_dynamic_cast_assert(ptr noundef %klass, ptr noundef nonnull @.str.1, ptr noundef nonnull @.str.138, i32 noundef 23, ptr noundef nonnull @__func__.SSI_PERIPHERAL_CLASS) #13
  %call.i9 = tail call ptr @object_class_dynamic_cast_assert(ptr noundef %klass, ptr noundef nonnull @.str, ptr noundef nonnull @.str.139, i32 noundef 516, ptr noundef nonnull @__func__.M25P80_CLASS) #13
  %realize = getelementptr inbounds nuw i8, ptr %call.i8, i64 176
  store ptr @m25p80_realize, ptr %realize, align 8
  %transfer = getelementptr inbounds nuw i8, ptr %call.i8, i64 184
  store ptr @m25p80_transfer8, ptr %transfer, align 8
  %set_cs = getelementptr inbounds nuw i8, ptr %call.i8, i64 192
  store ptr @m25p80_cs, ptr %set_cs, align 8
  %cs_polarity = getelementptr inbounds nuw i8, ptr %call.i8, i64 200
  store i32 1, ptr %cs_polarity, align 8
  %vmsd = getelementptr inbounds nuw i8, ptr %call.i, i64 160
  store ptr @vmstate_m25p80, ptr %vmsd, align 8
  tail call void @device_class_set_props(ptr noundef %call.i, ptr noundef nonnull @m25p80_properties) #13
  %reset = getelementptr inbounds nuw i8, ptr %call.i, i64 136
  store ptr @m25p80_reset, ptr %reset, align 8
  %pi = getelementptr inbounds nuw i8, ptr %call.i9, i64 216
  store ptr %data, ptr %pi, align 8
  ret void
}